; Function Attrs: mustprogress uwtable
define dso_local void @_ZN27cmInstallDirectoryGenerator23AddDirectoryInstallRuleERSoRKNSt7__cxx1112basic_stringIcSt11char_traitsIcESaIcEEE23cmScriptGeneratorIndentRKSt6vectorIS6_SaIS6_EE(ptr noundef nonnull align 8 dereferenceable(329) %0, ptr noundef nonnull align 8 dereferenceable(8) %1, ptr noundef nonnull align 8 dereferenceable(32) %2, i32 %3, ptr noundef nonnull align 8 dereferenceable(24) %4) local_unnamed_addr #3 align 2 personality ptr @__gxx_personality_v0 {
  %6 = alloca %"class.std::__cxx11::basic_string", align 8
  call void @_ZNK27cmInstallDirectoryGenerator14GetDestinationERKNSt7__cxx1112basic_stringIcSt11char_traitsIcESaIcEEE(ptr dead_on_unwind nonnull writable sret(%"class.std::__cxx11::basic_string") align 8 %6, ptr noundef nonnull align 8 dereferenceable(329) %0, ptr noundef nonnull align 8 dereferenceable(32) %2)
  %7 = getelementptr inbounds i8, ptr %0, i64 328
  %8 = load i8, ptr %7, align 8
  %9 = and i8 %8, 1
  %10 = icmp ne i8 %9, 0
  %11 = getelementptr inbounds i8, ptr %0, i64 232
  %12 = call noundef ptr @_ZNKSt7__cxx1112basic_stringIcSt11char_traitsIcESaIcEE5c_strEv(ptr noundef nonnull align 8 dereferenceable(32) %11) #13
  %13 = getelementptr inbounds i8, ptr %0, i64 264
  %14 = call noundef ptr @_ZNKSt7__cxx1112basic_stringIcSt11char_traitsIcESaIcEE5c_strEv(ptr noundef nonnull align 8 dereferenceable(32) %13) #13
  %15 = getelementptr inbounds i8, ptr %0, i64 296
  %16 = call noundef ptr @_ZNKSt7__cxx1112basic_stringIcSt11char_traitsIcESaIcEE5c_strEv(ptr noundef nonnull align 8 dereferenceable(32) %15) #13
  invoke void @_ZN18cmInstallGenerator14AddInstallRuleERSoRKNSt7__cxx1112basic_stringIcSt11char_traitsIcESaIcEEE13cmInstallTypeRKSt6vectorIS6_SaIS6_EEbPKcSG_SG_SG_23cmScriptGeneratorIndentSG_(ptr noundef nonnull align 8 dereferenceable(200) %0, ptr noundef nonnull align 8 dereferenceable(8) %1, ptr noundef nonnull align 8 dereferenceable(32) %6, i32 noundef 6, ptr noundef nonnull align 8 dereferenceable(24) %4, i1 noundef zeroext %10, ptr noundef %12, ptr noundef %14, ptr noundef null, ptr noundef %16, i32 %3, ptr noundef null)
          to label %17 unwind label %18

17:                                               ; preds = %5
  call void @_ZNSt7__cxx1112basic_stringIcSt11char_traitsIcESaIcEED1Ev(ptr noundef nonnull align 8 dereferenceable(32) %6) #13
  ret void

18:                                               ; preds = %5
  %19 = landingpad { ptr, i32 }
          cleanup
  call void @_ZNSt7__cxx1112basic_stringIcSt11char_traitsIcESaIcEED1Ev(ptr noundef nonnull align 8 dereferenceable(32) %6) #13
  resume { ptr, i32 } %19
}